; Function Attrs: mustprogress nofree norecurse nosync nounwind willreturn memory(argmem: readwrite) uwtable
define internal noundef i32 @zueci_utf32le_u(ptr nocapture noundef readonly %0, i32 noundef %1, i32 %2, ptr nocapture noundef writeonly %3) #6 {
  %5 = icmp ult i32 %1, 4
  br i1 %5, label %22, label %6

6:                                                ; preds = %4
  %7 = getelementptr i8, ptr %0, i64 2
  %8 = load i16, ptr %7, align 1
  %9 = zext i16 %8 to i32
  %10 = shl nuw i32 %9, 16
  %11 = getelementptr inbounds i8, ptr %0, i64 1
  %12 = load i8, ptr %11, align 1
  %13 = zext i8 %12 to i32
  %14 = shl nuw nsw i32 %13, 8
  %15 = or disjoint i32 %14, %10
  %16 = load i8, ptr %0, align 1
  %17 = zext i8 %16 to i32
  %18 = or disjoint i32 %15, %17
  %19 = icmp ult i32 %18, 55296
  %20 = add i32 %15, -57344
  %or.cond = icmp ult i32 %20, 1056768
  %or.cond12 = or i1 %19, %or.cond
  br i1 %or.cond12, label %21, label %22

21:                                               ; preds = %6
  store i32 %18, ptr %3, align 4
  br label %22

22:                                               ; preds = %6, %4, %21
  %.0 = phi i32 [ 4, %21 ], [ 0, %4 ], [ 0, %6 ]
  ret i32 %.0
}